target datalayout = "e-m:e-p270:32:32-p271:32:32-p272:64:64-i64:64-i128:128-f80:128-n8:16:32:64-S128"
target triple = "x86_64-pc-linux-gnu"

@libctx = internal global ptr null, align 8
@.str.14 = private unnamed_addr constant [29 x i8] c"../openssl/test/sslapitest.c\00", align 1
@cert = internal global ptr null, align 8
@privkey = internal global ptr null, align 8
@.str.157 = private unnamed_addr constant [67 x i8] c"create_ssl_objects(sctx, cctx, &serverssl, &clientssl, NULL, NULL)\00", align 1
@.str.158 = private unnamed_addr constant [60 x i8] c"create_ssl_connection(serverssl, clientssl, SSL_ERROR_NONE)\00", align 1
@.str.193 = private unnamed_addr constant [3 x i8] c"-1\00", align 1
@.str.266 = private unnamed_addr constant [7 x i8] c"bretry\00", align 1
@.str.282 = private unnamed_addr constant [4 x i8] c"tmp\00", align 1
@.str.283 = private unnamed_addr constant [16 x i8] c"BIO_up_ref(tmp)\00", align 1
@.str.285 = private unnamed_addr constant [21 x i8] c"SSL_ERROR_WANT_WRITE\00", align 1
@.str.404 = private unnamed_addr constant [29 x i8] c"SSL_get_error(serverssl, -1)\00", align 1
@.str.475 = private unnamed_addr constant [23 x i8] c"SSL_connect(clientssl)\00", align 1
@.str.476 = private unnamed_addr constant [22 x i8] c"SSL_accept(serverssl)\00", align 1
@.str.1300 = private unnamed_addr constant [114 x i8] c"create_ssl_ctx_pair(libctx, TLS_server_method(), TLS_client_method(), 0, maxversion, &sctx, &cctx, cert, privkey)\00", align 1

; Function Attrs: nounwind uwtable
define internal i32 @test_handshake_retry(i32 noundef %0) #0 {
  %2 = alloca i32, align 4
  %3 = alloca ptr, align 8
  %4 = alloca ptr, align 8
  %5 = alloca ptr, align 8
  %6 = alloca ptr, align 8
  %7 = alloca i32, align 4
  %8 = alloca ptr, align 8
  %9 = alloca ptr, align 8
  %10 = alloca i32, align 4
  store i32 %0, ptr %2, align 4, !tbaa !13
  call void @llvm.lifetime.start.p0(i64 8, ptr %3) #9
  store ptr null, ptr %3, align 8, !tbaa !19
  call void @llvm.lifetime.start.p0(i64 8, ptr %4) #9
  store ptr null, ptr %4, align 8, !tbaa !19
  call void @llvm.lifetime.start.p0(i64 8, ptr %5) #9
  store ptr null, ptr %5, align 8, !tbaa !21
  call void @llvm.lifetime.start.p0(i64 8, ptr %6) #9
  store ptr null, ptr %6, align 8, !tbaa !21
  call void @llvm.lifetime.start.p0(i64 4, ptr %7) #9
  store i32 0, ptr %7, align 4, !tbaa !13
  call void @llvm.lifetime.start.p0(i64 8, ptr %8) #9
  store ptr null, ptr %8, align 8, !tbaa !29
  call void @llvm.lifetime.start.p0(i64 8, ptr %9) #9
  %11 = call ptr @bio_s_always_retry()
  %12 = call ptr @BIO_new(ptr noundef %11)
  store ptr %12, ptr %9, align 8, !tbaa !29
  call void @llvm.lifetime.start.p0(i64 4, ptr %10) #9
  store i32 0, ptr %10, align 4, !tbaa !13
  %13 = load ptr, ptr %9, align 8, !tbaa !29
  %14 = call i32 @test_ptr(ptr noundef @.str.14, i32 noundef 11864, ptr noundef @.str.266, ptr noundef %13)
  %15 = icmp ne i32 %14, 0
  br i1 %15, label %17, label %16

16:                                               ; preds = %1
  br label %111

17:                                               ; preds = %1
  %18 = load i32, ptr %2, align 4, !tbaa !13
  %19 = and i32 %18, 8
  %20 = icmp eq i32 %19, 8
  br i1 %20, label %21, label %22

21:                                               ; preds = %17
  store i32 771, ptr %10, align 4, !tbaa !13
  br label %22

22:                                               ; preds = %21, %17
  %23 = load ptr, ptr @libctx, align 8, !tbaa !4
  %24 = call ptr @TLS_server_method()
  %25 = call ptr @TLS_client_method()
  %26 = load i32, ptr %10, align 4, !tbaa !13
  %27 = load ptr, ptr @cert, align 8, !tbaa !11
  %28 = load ptr, ptr @privkey, align 8, !tbaa !11
  %29 = call i32 @create_ssl_ctx_pair(ptr noundef %23, ptr noundef %24, ptr noundef %25, i32 noundef 0, i32 noundef %26, ptr noundef %4, ptr noundef %3, ptr noundef %27, ptr noundef %28)
  %30 = icmp ne i32 %29, 0
  %31 = zext i1 %30 to i32
  %32 = call i32 @test_true(ptr noundef @.str.14, i32 noundef 11877, ptr noundef @.str.1300, i32 noundef %31)
  %33 = icmp ne i32 %32, 0
  br i1 %33, label %35, label %34

34:                                               ; preds = %22
  br label %111

35:                                               ; preds = %22
  %36 = load i32, ptr %2, align 4, !tbaa !13
  %37 = and i32 %36, 1
  %38 = icmp eq i32 %37, 1
  br i1 %38, label %39, label %46

39:                                               ; preds = %35
  %40 = load ptr, ptr @libctx, align 8, !tbaa !4
  %41 = load ptr, ptr %4, align 8, !tbaa !19
  %42 = load ptr, ptr @cert, align 8, !tbaa !11
  %43 = call i32 @ssl_ctx_add_large_cert_chain(ptr noundef %40, ptr noundef %41, ptr noundef %42)
  %44 = icmp ne i32 %43, 0
  br i1 %44, label %46, label %45

45:                                               ; preds = %39
  br label %111

46:                                               ; preds = %39, %35
  %47 = load i32, ptr %2, align 4, !tbaa !13
  %48 = and i32 %47, 2
  %49 = icmp eq i32 %48, 2
  br i1 %49, label %50, label %52

50:                                               ; preds = %46
  %51 = load ptr, ptr %4, align 8, !tbaa !19
  call void @SSL_CTX_set_verify(ptr noundef %51, i32 noundef 1, ptr noundef null)
  br label %52

52:                                               ; preds = %50, %46
  %53 = load i32, ptr %2, align 4, !tbaa !13
  %54 = and i32 %53, 4
  %55 = icmp eq i32 %54, 4
  br i1 %55, label %56, label %57

56:                                               ; preds = %52
  call void @set_always_retry_err_val(i32 noundef 0)
  br label %57

57:                                               ; preds = %56, %52
  %58 = load ptr, ptr %4, align 8, !tbaa !19
  %59 = load ptr, ptr %3, align 8, !tbaa !19
  %60 = call i32 @create_ssl_objects(ptr noundef %58, ptr noundef %59, ptr noundef %6, ptr noundef %5, ptr noundef null, ptr noundef null)
  %61 = icmp ne i32 %60, 0
  %62 = zext i1 %61 to i32
  %63 = call i32 @test_true(ptr noundef @.str.14, i32 noundef 11898, ptr noundef @.str.157, i32 noundef %62)
  %64 = icmp ne i32 %63, 0
  br i1 %64, label %66, label %65

65:                                               ; preds = %57
  br label %111

66:                                               ; preds = %57
  %67 = load ptr, ptr %6, align 8, !tbaa !21
  %68 = call ptr @SSL_get_wbio(ptr noundef %67)
  store ptr %68, ptr %8, align 8, !tbaa !29
  %69 = load ptr, ptr %8, align 8, !tbaa !29
  %70 = call i32 @test_ptr(ptr noundef @.str.14, i32 noundef 11902, ptr noundef @.str.282, ptr noundef %69)
  %71 = icmp ne i32 %70, 0
  br i1 %71, label %72, label %79

72:                                               ; preds = %66
  %73 = load ptr, ptr %8, align 8, !tbaa !29
  %74 = call i32 @BIO_up_ref(ptr noundef %73)
  %75 = icmp ne i32 %74, 0
  %76 = zext i1 %75 to i32
  %77 = call i32 @test_true(ptr noundef @.str.14, i32 noundef 11902, ptr noundef @.str.283, i32 noundef %76)
  %78 = icmp ne i32 %77, 0
  br i1 %78, label %80, label %79

79:                                               ; preds = %72, %66
  store ptr null, ptr %8, align 8, !tbaa !29
  br label %111

80:                                               ; preds = %72
  %81 = load ptr, ptr %6, align 8, !tbaa !21
  %82 = load ptr, ptr %9, align 8, !tbaa !29
  call void @SSL_set0_wbio(ptr noundef %81, ptr noundef %82)
  store ptr null, ptr %9, align 8, !tbaa !29
  %83 = load ptr, ptr %5, align 8, !tbaa !21
  %84 = call i32 @SSL_connect(ptr noundef %83)
  %85 = call i32 @test_int_eq(ptr noundef @.str.14, i32 noundef 11909, ptr noundef @.str.475, ptr noundef @.str.193, i32 noundef %84, i32 noundef -1)
  %86 = icmp ne i32 %85, 0
  br i1 %86, label %88, label %87

87:                                               ; preds = %80
  br label %111

88:                                               ; preds = %80
  %89 = load ptr, ptr %6, align 8, !tbaa !21
  %90 = call i32 @SSL_accept(ptr noundef %89)
  %91 = call i32 @test_int_eq(ptr noundef @.str.14, i32 noundef 11912, ptr noundef @.str.476, ptr noundef @.str.193, i32 noundef %90, i32 noundef -1)
  %92 = icmp ne i32 %91, 0
  br i1 %92, label %93, label %98

93:                                               ; preds = %88
  %94 = load ptr, ptr %6, align 8, !tbaa !21
  %95 = call i32 @SSL_get_error(ptr noundef %94, i32 noundef -1)
  %96 = call i32 @test_int_eq(ptr noundef @.str.14, i32 noundef 11913, ptr noundef @.str.404, ptr noundef @.str.285, i32 noundef %95, i32 noundef 3)
  %97 = icmp ne i32 %96, 0
  br i1 %97, label %99, label %98

98:                                               ; preds = %93, %88
  br label %111

99:                                               ; preds = %93
  %100 = load ptr, ptr %6, align 8, !tbaa !21
  %101 = load ptr, ptr %8, align 8, !tbaa !29
  call void @SSL_set0_wbio(ptr noundef %100, ptr noundef %101)
  store ptr null, ptr %8, align 8, !tbaa !29
  %102 = load ptr, ptr %6, align 8, !tbaa !21
  %103 = load ptr, ptr %5, align 8, !tbaa !21
  %104 = call i32 @create_ssl_connection(ptr noundef %102, ptr noundef %103, i32 noundef 0)
  %105 = icmp ne i32 %104, 0
  %106 = zext i1 %105 to i32
  %107 = call i32 @test_true(ptr noundef @.str.14, i32 noundef 11920, ptr noundef @.str.158, i32 noundef %106)
  %108 = icmp ne i32 %107, 0
  br i1 %108, label %110, label %109

109:                                              ; preds = %99
  br label %111

110:                                              ; preds = %99
  store i32 1, ptr %7, align 4, !tbaa !13
  br label %111

111:                                              ; preds = %110, %109, %98, %87, %79, %65, %45, %34, %16
  %112 = load ptr, ptr %6, align 8, !tbaa !21
  call void @SSL_free(ptr noundef %112)
  %113 = load ptr, ptr %5, align 8, !tbaa !21
  call void @SSL_free(ptr noundef %113)
  %114 = load ptr, ptr %4, align 8, !tbaa !19
  call void @SSL_CTX_free(ptr noundef %114)
  %115 = load ptr, ptr %3, align 8, !tbaa !19
  call void @SSL_CTX_free(ptr noundef %115)
  %116 = load ptr, ptr %9, align 8, !tbaa !29
  %117 = call i32 @BIO_free(ptr noundef %116)
  %118 = load ptr, ptr %8, align 8, !tbaa !29
  %119 = call i32 @BIO_free(ptr noundef %118)
  call void @set_always_retry_err_val(i32 noundef -1)
  %120 = load i32, ptr %7, align 4, !tbaa !13
  call void @llvm.lifetime.end.p0(i64 4, ptr %10) #9
  call void @llvm.lifetime.end.p0(i64 8, ptr %9) #9
  call void @llvm.lifetime.end.p0(i64 8, ptr %8) #9
  call void @llvm.lifetime.end.p0(i64 4, ptr %7) #9
  call void @llvm.lifetime.end.p0(i64 8, ptr %6) #9
  call void @llvm.lifetime.end.p0(i64 8, ptr %5) #9
  call void @llvm.lifetime.end.p0(i64 8, ptr %4) #9
  call void @llvm.lifetime.end.p0(i64 8, ptr %3) #9
  ret i32 %120
}