; Function Attrs: nounwind uwtable
define internal range(i32 0, 2) i32 @test_handshake_retry(i32 noundef %0) #1 {
  %2 = alloca ptr, align 8
  %3 = alloca ptr, align 8
  %4 = alloca ptr, align 8
  %5 = alloca ptr, align 8
  call void @llvm.lifetime.start.p0(i64 8, ptr nonnull %2) #24
  store ptr null, ptr %2, align 8, !tbaa !19
  call void @llvm.lifetime.start.p0(i64 8, ptr nonnull %3) #24
  store ptr null, ptr %3, align 8, !tbaa !19
  call void @llvm.lifetime.start.p0(i64 8, ptr nonnull %4) #24
  store ptr null, ptr %4, align 8, !tbaa !21
  call void @llvm.lifetime.start.p0(i64 8, ptr nonnull %5) #24
  store ptr null, ptr %5, align 8, !tbaa !21
  %6 = tail call ptr @bio_s_always_retry() #24
  %7 = tail call ptr @BIO_new(ptr noundef %6) #24
  %8 = tail call i32 @test_ptr(ptr noundef nonnull @.str.14, i32 noundef 11864, ptr noundef nonnull @.str.266, ptr noundef %7) #24
  %.not = icmp eq i32 %8, 0
  br i1 %.not, label %71, label %9

9:                                                ; preds = %1
  %10 = and i32 %0, 8
  %.not15 = icmp eq i32 %10, 0
  %spec.select = select i1 %.not15, i32 0, i32 771
  %11 = load ptr, ptr @libctx, align 8, !tbaa !4
  %12 = tail call ptr @TLS_server_method() #24
  %13 = tail call ptr @TLS_client_method() #24
  %14 = load ptr, ptr @cert, align 8, !tbaa !11
  %15 = load ptr, ptr @privkey, align 8, !tbaa !11
  %16 = call i32 @create_ssl_ctx_pair(ptr noundef %11, ptr noundef %12, ptr noundef %13, i32 noundef 0, i32 noundef %spec.select, ptr noundef nonnull %3, ptr noundef nonnull %2, ptr noundef %14, ptr noundef %15) #24
  %17 = icmp ne i32 %16, 0
  %18 = zext i1 %17 to i32
  %19 = call i32 @test_true(ptr noundef nonnull @.str.14, i32 noundef 11877, ptr noundef nonnull @.str.1300, i32 noundef %18) #24
  %.not16 = icmp eq i32 %19, 0
  br i1 %.not16, label %71, label %20

20:                                               ; preds = %9
  %21 = and i32 %0, 1
  %.not17 = icmp eq i32 %21, 0
  br i1 %.not17, label %27, label %22

22:                                               ; preds = %20
  %23 = load ptr, ptr @libctx, align 8, !tbaa !4
  %24 = load ptr, ptr %3, align 8, !tbaa !19
  %25 = load ptr, ptr @cert, align 8, !tbaa !11
  %26 = call i32 @ssl_ctx_add_large_cert_chain(ptr noundef %23, ptr noundef %24, ptr noundef %25) #24
  %.not18 = icmp eq i32 %26, 0
  br i1 %.not18, label %71, label %27

27:                                               ; preds = %22, %20
  %28 = and i32 %0, 2
  %.not19 = icmp eq i32 %28, 0
  br i1 %.not19, label %31, label %29

29:                                               ; preds = %27
  %30 = load ptr, ptr %3, align 8, !tbaa !19
  call void @SSL_CTX_set_verify(ptr noundef %30, i32 noundef 1, ptr noundef null) #24
  br label %31

31:                                               ; preds = %29, %27
  %32 = and i32 %0, 4
  %.not20 = icmp eq i32 %32, 0
  br i1 %.not20, label %34, label %33

33:                                               ; preds = %31
  call void @set_always_retry_err_val(i32 noundef 0) #24
  br label %34

34:                                               ; preds = %33, %31
  %35 = load ptr, ptr %3, align 8, !tbaa !19
  %36 = load ptr, ptr %2, align 8, !tbaa !19
  %37 = call i32 @create_ssl_objects(ptr noundef %35, ptr noundef %36, ptr noundef nonnull %5, ptr noundef nonnull %4, ptr noundef null, ptr noundef null) #24
  %38 = icmp ne i32 %37, 0
  %39 = zext i1 %38 to i32
  %40 = call i32 @test_true(ptr noundef nonnull @.str.14, i32 noundef 11898, ptr noundef nonnull @.str.157, i32 noundef %39) #24
  %.not21 = icmp eq i32 %40, 0
  br i1 %.not21, label %71, label %41

41:                                               ; preds = %34
  %42 = load ptr, ptr %5, align 8, !tbaa !21
  %43 = call ptr @SSL_get_wbio(ptr noundef %42) #24
  %44 = call i32 @test_ptr(ptr noundef nonnull @.str.14, i32 noundef 11902, ptr noundef nonnull @.str.282, ptr noundef %43) #24
  %.not22 = icmp eq i32 %44, 0
  br i1 %.not22, label %71, label %45

45:                                               ; preds = %41
  %46 = call i32 @BIO_up_ref(ptr noundef %43) #24
  %47 = icmp ne i32 %46, 0
  %48 = zext i1 %47 to i32
  %49 = call i32 @test_true(ptr noundef nonnull @.str.14, i32 noundef 11902, ptr noundef nonnull @.str.283, i32 noundef %48) #24
  %.not23 = icmp eq i32 %49, 0
  br i1 %.not23, label %71, label %50

50:                                               ; preds = %45
  %51 = load ptr, ptr %5, align 8, !tbaa !21
  call void @SSL_set0_wbio(ptr noundef %51, ptr noundef %7) #24
  %52 = load ptr, ptr %4, align 8, !tbaa !21
  %53 = call i32 @SSL_connect(ptr noundef %52) #24
  %54 = call i32 @test_int_eq(ptr noundef nonnull @.str.14, i32 noundef 11909, ptr noundef nonnull @.str.475, ptr noundef nonnull @.str.193, i32 noundef %53, i32 noundef -1) #24
  %.not24 = icmp eq i32 %54, 0
  br i1 %.not24, label %71, label %55

55:                                               ; preds = %50
  %56 = load ptr, ptr %5, align 8, !tbaa !21
  %57 = call i32 @SSL_accept(ptr noundef %56) #24
  %58 = call i32 @test_int_eq(ptr noundef nonnull @.str.14, i32 noundef 11912, ptr noundef nonnull @.str.476, ptr noundef nonnull @.str.193, i32 noundef %57, i32 noundef -1) #24
  %.not25 = icmp eq i32 %58, 0
  br i1 %.not25, label %71, label %59

59:                                               ; preds = %55
  %60 = load ptr, ptr %5, align 8, !tbaa !21
  %61 = call i32 @SSL_get_error(ptr noundef %60, i32 noundef -1) #24
  %62 = call i32 @test_int_eq(ptr noundef nonnull @.str.14, i32 noundef 11913, ptr noundef nonnull @.str.404, ptr noundef nonnull @.str.285, i32 noundef %61, i32 noundef 3) #24
  %.not26 = icmp eq i32 %62, 0
  br i1 %.not26, label %71, label %63

63:                                               ; preds = %59
  %64 = load ptr, ptr %5, align 8, !tbaa !21
  call void @SSL_set0_wbio(ptr noundef %64, ptr noundef %43) #24
  %65 = load ptr, ptr %5, align 8, !tbaa !21
  %66 = load ptr, ptr %4, align 8, !tbaa !21
  %67 = call i32 @create_ssl_connection(ptr noundef %65, ptr noundef %66, i32 noundef 0) #24
  %68 = icmp ne i32 %67, 0
  %69 = zext i1 %68 to i32
  %70 = call i32 @test_true(ptr noundef nonnull @.str.14, i32 noundef 11920, ptr noundef nonnull @.str.158, i32 noundef %69) #24
  %.not27 = icmp ne i32 %70, 0
  %spec.select28 = zext i1 %.not27 to i32
  br label %71

71:                                               ; preds = %63, %41, %45, %55, %59, %50, %34, %22, %9, %1
  %.014 = phi i32 [ 0, %59 ], [ 0, %55 ], [ 0, %50 ], [ 0, %34 ], [ 0, %22 ], [ 0, %9 ], [ 0, %1 ], [ 0, %45 ], [ 0, %41 ], [ %spec.select28, %63 ]
  %.013 = phi ptr [ %43, %59 ], [ %43, %55 ], [ %43, %50 ], [ null, %34 ], [ null, %22 ], [ null, %9 ], [ null, %1 ], [ null, %45 ], [ null, %41 ], [ null, %63 ]
  %.012 = phi ptr [ null, %59 ], [ null, %55 ], [ null, %50 ], [ %7, %34 ], [ %7, %22 ], [ %7, %9 ], [ %7, %1 ], [ %7, %45 ], [ %7, %41 ], [ null, %63 ]
  %72 = load ptr, ptr %5, align 8, !tbaa !21
  call void @SSL_free(ptr noundef %72) #24
  %73 = load ptr, ptr %4, align 8, !tbaa !21
  call void @SSL_free(ptr noundef %73) #24
  %74 = load ptr, ptr %3, align 8, !tbaa !19
  call void @SSL_CTX_free(ptr noundef %74) #24
  %75 = load ptr, ptr %2, align 8, !tbaa !19
  call void @SSL_CTX_free(ptr noundef %75) #24
  %76 = call i32 @BIO_free(ptr noundef %.012) #24
  %77 = call i32 @BIO_free(ptr noundef %.013) #24
  call void @set_always_retry_err_val(i32 noundef -1) #24
  call void @llvm.lifetime.end.p0(i64 8, ptr nonnull %5) #24
  call void @llvm.lifetime.end.p0(i64 8, ptr nonnull %4) #24
  call void @llvm.lifetime.end.p0(i64 8, ptr nonnull %3) #24
  call void @llvm.lifetime.end.p0(i64 8, ptr nonnull %2) #24
  ret i32 %.014
}